; Function Attrs: mustprogress sspstrong uwtable
define void @_ZN3tbb6detail2r115task_arena_impl4waitERNS0_2d115task_arena_baseE(ptr noundef nonnull readonly align 8 captures(none) dereferenceable(48) %0) local_unnamed_addr #1 align 2 personality ptr @__gxx_personality_v0 {
  %2 = getelementptr inbounds nuw i8, ptr %0, i64 16
  %3 = load atomic i64, ptr %2 monotonic, align 8
  %.0.i.i = inttoptr i64 %3 to ptr
  %4 = load i32, ptr @_ZN3tbb6detail2r18governor6theTLSE, align 4, !tbaa !111
  %5 = tail call noundef ptr @pthread_getspecific(i32 noundef %4) #13
  %.not.i = icmp eq ptr %5, null
  br i1 %.not.i, label %6, label %_ZN3tbb6detail2r18governor15get_thread_dataEv.exit

6:                                                ; preds = %1
  tail call void @_ZN3tbb6detail2r18governor20init_external_threadEv()
  %7 = load i32, ptr @_ZN3tbb6detail2r18governor6theTLSE, align 4, !tbaa !111
  %8 = tail call noundef ptr @pthread_getspecific(i32 noundef %7) #13
  br label %_ZN3tbb6detail2r18governor15get_thread_dataEv.exit

_ZN3tbb6detail2r18governor15get_thread_dataEv.exit: ; preds = %1, %6
  %9 = getelementptr inbounds nuw i8, ptr %.0.i.i, i64 380
  %10 = load i32, ptr %9, align 4, !tbaa !151
  %.not = icmp eq i32 %10, 0
  br i1 %.not, label %.loopexit, label %.preheader

.preheader:                                       ; preds = %_ZN3tbb6detail2r18governor15get_thread_dataEv.exit
  %11 = getelementptr inbounds nuw i8, ptr %.0.i.i, i64 232
  %12 = getelementptr inbounds nuw i8, ptr %.0.i.i, i64 132
  br label %13

13:                                               ; preds = %.preheader, %.critedge
  %14 = load atomic i32, ptr %12 acquire, align 4
  %.not4 = icmp ult i32 %14, 4096
  br i1 %.not4, label %15, label %.critedge

15:                                               ; preds = %13
  %16 = load atomic i64, ptr %11 acquire, align 8
  %.not.i5 = icmp eq i64 %16, 0
  br i1 %.not.i5, label %.loopexit, label %.critedge

.critedge:                                        ; preds = %13, %15
  %17 = tail call noundef i32 @sched_yield() #13
  br label %13, !llvm.loop !243

.loopexit:                                        ; preds = %15, %_ZN3tbb6detail2r18governor15get_thread_dataEv.exit
  ret void
}